target datalayout = "e-m:e-p270:32:32-p271:32:32-p272:64:64-i64:64-i128:128-f80:128-n8:16:32:64-S128"
target triple = "x86_64-pc-linux-gnu"

%struct.ruby_glob_funcs_t = type { ptr, ptr }
%struct.brace_args = type { %struct.ruby_glob_funcs_t, i64, i32 }
%struct.RBasic = type { i64, i64 }
%struct.RString = type { %struct.RBasic, i64, %union.anon.16 }
%union.anon.16 = type { %struct.anon.17 }
%struct.anon.17 = type { ptr, %union.anon.18 }
%union.anon.18 = type { i64 }
%struct.anon.19 = type { [1 x i8] }
%struct.OnigEncodingTypeST = type { ptr, ptr, i32, i32, ptr, ptr, ptr, ptr, ptr, ptr, ptr, ptr, ptr, ptr, ptr, ptr, ptr, i32, i32 }

; Function Attrs: inlinehint nounwind sspstrong willreturn memory(read) uwtable
define internal i64 @RB_FL_TEST_RAW(i64 noundef %0, i64 noundef %1) #19 {
  %3 = alloca i64, align 8
  %4 = alloca i64, align 8
  store i64 %0, ptr %3, align 8, !tbaa !7
  store i64 %1, ptr %4, align 8, !tbaa !7
  %5 = load i64, ptr %3, align 8, !tbaa !7
  %6 = inttoptr i64 %5 to ptr
  %7 = getelementptr inbounds nuw %struct.RBasic, ptr %6, i32 0, i32 0
  %8 = load i64, ptr %7, align 8, !tbaa !184
  %9 = load i64, ptr %4, align 8, !tbaa !7
  %10 = and i64 %8, %9
  ret i64 %10
}

; Function Attrs: inlinehint nounwind sspstrong willreturn memory(read) uwtable
define internal i64 @RSTRING_LEN(i64 noundef %0) #19 {
  %2 = alloca i64, align 8
  store i64 %0, ptr %2, align 8, !tbaa !7
  %3 = load i64, ptr %2, align 8, !tbaa !7
  %4 = inttoptr i64 %3 to ptr
  %5 = getelementptr inbounds nuw %struct.RString, ptr %4, i32 0, i32 1
  %6 = load i64, ptr %5, align 8, !tbaa !202
  ret i64 %6
}

; Function Attrs: inlinehint nounwind sspstrong willreturn memory(read) uwtable
define internal zeroext i1 @RB_FL_ANY_RAW(i64 noundef %0, i64 noundef %1) #19 {
  %3 = alloca i64, align 8
  %4 = alloca i64, align 8
  store i64 %0, ptr %3, align 8, !tbaa !7
  store i64 %1, ptr %4, align 8, !tbaa !7
  %5 = load i64, ptr %3, align 8, !tbaa !7
  %6 = load i64, ptr %4, align 8, !tbaa !7
  %7 = call i64 @RB_FL_TEST_RAW(i64 noundef %5, i64 noundef %6) #27
  %8 = icmp ne i64 %7, 0
  ret i1 %8
}

; Function Attrs: inlinehint nounwind sspstrong willreturn memory(read, argmem: readwrite) uwtable
define internal void @rbimpl_rstring_getmem(ptr dead_on_unwind noalias writable sret(%struct.RString) align 8 %0, i64 noundef %1) #24 {
  %3 = alloca i64, align 8
  store i64 %1, ptr %3, align 8, !tbaa !7
  %4 = load i64, ptr %3, align 8, !tbaa !7
  %5 = call zeroext i1 @RB_FL_ANY_RAW(i64 noundef %4, i64 noundef 8192) #27
  br i1 %5, label %6, label %9

6:                                                ; preds = %2
  %7 = load i64, ptr %3, align 8, !tbaa !7
  %8 = inttoptr i64 %7 to ptr
  call void @llvm.memcpy.p0.p0.i64(ptr align 8 %0, ptr align 8 %8, i64 40, i1 false), !tbaa.struct !201
  br label %20

9:                                                ; preds = %2
  %10 = load i64, ptr %3, align 8, !tbaa !7
  %11 = call i64 @RSTRING_LEN(i64 noundef %10) #27
  %12 = getelementptr inbounds nuw %struct.RString, ptr %0, i32 0, i32 1
  store i64 %11, ptr %12, align 8, !tbaa !202
  %13 = load i64, ptr %3, align 8, !tbaa !7
  %14 = inttoptr i64 %13 to ptr
  %15 = getelementptr inbounds nuw %struct.RString, ptr %14, i32 0, i32 2
  %16 = getelementptr inbounds nuw %struct.anon.19, ptr %15, i32 0, i32 0
  %17 = getelementptr inbounds [1 x i8], ptr %16, i64 0, i64 0
  %18 = getelementptr inbounds nuw %struct.RString, ptr %0, i32 0, i32 2
  %19 = getelementptr inbounds nuw %struct.anon.17, ptr %18, i32 0, i32 0
  store ptr %17, ptr %19, align 8, !tbaa !26
  br label %20

20:                                               ; preds = %9, %6
  ret void
}

; Function Attrs: inlinehint nounwind sspstrong uwtable
define internal i32 @rb_enc_mbminlen(ptr noundef %0) #2 {
  %2 = alloca ptr, align 8
  store ptr %0, ptr %2, align 8, !tbaa !19
  %3 = load ptr, ptr %2, align 8, !tbaa !19
  %4 = getelementptr inbounds nuw %struct.OnigEncodingTypeST, ptr %3, i32 0, i32 3
  %5 = load i32, ptr %4, align 4, !tbaa !213
  ret i32 %5
}

; Function Attrs: inlinehint nounwind sspstrong uwtable
define internal ptr @RSTRING_PTR(i64 noundef %0) #2 {
  %2 = alloca i64, align 8
  %3 = alloca ptr, align 8
  %4 = alloca %struct.RString, align 8
  store i64 %0, ptr %2, align 8, !tbaa !7
  call void @llvm.lifetime.start.p0(i64 8, ptr %3) #26
  %5 = load i64, ptr %2, align 8, !tbaa !7
  call void @rbimpl_rstring_getmem(ptr dead_on_unwind writable sret(%struct.RString) align 8 %4, i64 noundef %5) #35
  %6 = getelementptr inbounds nuw %struct.RString, ptr %4, i32 0, i32 2
  %7 = getelementptr inbounds nuw %struct.anon.17, ptr %6, i32 0, i32 0
  %8 = load ptr, ptr %7, align 8, !tbaa !26
  store ptr %8, ptr %3, align 8, !tbaa !11
  %9 = load ptr, ptr %3, align 8, !tbaa !11
  call void @llvm.lifetime.end.p0(i64 8, ptr %3) #26
  ret ptr %9
}

; Function Attrs: inlinehint nounwind sspstrong uwtable
define internal zeroext i1 @rb_enc_asciicompat(ptr noundef %0) #2 {
  %2 = alloca i1, align 1
  %3 = alloca ptr, align 8
  store ptr %0, ptr %3, align 8, !tbaa !19
  %4 = load ptr, ptr %3, align 8, !tbaa !19
  %5 = call i32 @rb_enc_mbminlen(ptr noundef %4)
  %6 = icmp ne i32 %5, 1
  br i1 %6, label %7, label %8

7:                                                ; preds = %1
  store i1 false, ptr %2, align 1
  br label %14

8:                                                ; preds = %1
  %9 = load ptr, ptr %3, align 8, !tbaa !19
  %10 = call i32 @rb_enc_dummy_p(ptr noundef %9) #27
  %11 = icmp ne i32 %10, 0
  br i1 %11, label %12, label %13

12:                                               ; preds = %8
  store i1 false, ptr %2, align 1
  br label %14

13:                                               ; preds = %8
  store i1 true, ptr %2, align 1
  br label %14

14:                                               ; preds = %13, %12, %7
  %15 = load i1, ptr %2, align 1
  ret i1 %15
}

; Function Attrs: nounwind sspstrong uwtable
define internal i32 @fnmatch_brace(ptr noundef %0, i64 noundef %1, ptr noundef %2) #0 {
  %4 = alloca i32, align 4
  %5 = alloca ptr, align 8
  %6 = alloca i64, align 8
  %7 = alloca ptr, align 8
  %8 = alloca ptr, align 8
  %9 = alloca i64, align 8
  %10 = alloca ptr, align 8
  %11 = alloca ptr, align 8
  %12 = alloca i32, align 4
  %13 = alloca i32, align 4
  %14 = alloca i64, align 8
  store ptr %0, ptr %5, align 8, !tbaa !11
  store i64 %1, ptr %6, align 8, !tbaa !7
  store ptr %2, ptr %7, align 8, !tbaa !14
  call void @llvm.lifetime.start.p0(i64 8, ptr %8) #26
  %15 = load i64, ptr %6, align 8, !tbaa !7
  %16 = inttoptr i64 %15 to ptr
  store ptr %16, ptr %8, align 8, !tbaa !50
  call void @llvm.lifetime.start.p0(i64 8, ptr %9) #26
  %17 = load ptr, ptr %8, align 8, !tbaa !50
  %18 = getelementptr inbounds nuw %struct.brace_args, ptr %17, i32 0, i32 1
  %19 = load i64, ptr %18, align 8, !tbaa !42
  store i64 %19, ptr %9, align 8, !tbaa !7
  call void @llvm.lifetime.start.p0(i64 8, ptr %10) #26
  %20 = load ptr, ptr %7, align 8, !tbaa !14
  store ptr %20, ptr %10, align 8, !tbaa !19
  call void @llvm.lifetime.start.p0(i64 8, ptr %11) #26
  %21 = load i64, ptr %9, align 8, !tbaa !7
  %22 = call ptr @rb_enc_get(i64 noundef %21)
  store ptr %22, ptr %11, align 8, !tbaa !19
  %23 = load ptr, ptr %10, align 8, !tbaa !19
  %24 = load ptr, ptr %11, align 8, !tbaa !19
  %25 = icmp ne ptr %23, %24
  br i1 %25, label %26, label %59

26:                                               ; preds = %3
  %27 = load ptr, ptr %10, align 8, !tbaa !19
  %28 = call zeroext i1 @rb_enc_asciicompat(ptr noundef %27)
  br i1 %28, label %30, label %29

29:                                               ; preds = %26
  store i32 1, ptr %4, align 4
  store i32 1, ptr %12, align 4
  br label %70

30:                                               ; preds = %26
  %31 = load ptr, ptr %11, align 8, !tbaa !19
  %32 = call zeroext i1 @rb_enc_asciicompat(ptr noundef %31)
  br i1 %32, label %34, label %33

33:                                               ; preds = %30
  store i32 1, ptr %4, align 4
  store i32 1, ptr %12, align 4
  br label %70

34:                                               ; preds = %30
  %35 = load i64, ptr %9, align 8, !tbaa !7
  %36 = call i32 @rb_enc_str_asciionly_p(i64 noundef %35)
  %37 = icmp ne i32 %36, 0
  br i1 %37, label %58, label %38

38:                                               ; preds = %34
  call void @llvm.lifetime.start.p0(i64 4, ptr %13) #26
  store i32 1048576, ptr %13, align 4, !tbaa !21
  call void @llvm.lifetime.start.p0(i64 8, ptr %14) #26
  %39 = load ptr, ptr %5, align 8, !tbaa !11
  %40 = call i64 @strlen(ptr noundef %39) #27
  store i64 %40, ptr %14, align 8, !tbaa !7
  %41 = load ptr, ptr %5, align 8, !tbaa !11
  %42 = load ptr, ptr %5, align 8, !tbaa !11
  %43 = load i64, ptr %14, align 8, !tbaa !7
  %44 = getelementptr i8, ptr %42, i64 %43
  %45 = load ptr, ptr %10, align 8, !tbaa !19
  %46 = call i64 @rb_str_coderange_scan_restartable(ptr noundef %41, ptr noundef %44, ptr noundef %45, ptr noundef %13)
  %47 = load i64, ptr %14, align 8, !tbaa !7
  %48 = icmp ne i64 %46, %47
  br i1 %48, label %49, label %50

49:                                               ; preds = %38
  store i32 1, ptr %4, align 4
  store i32 1, ptr %12, align 4
  br label %55

50:                                               ; preds = %38
  %51 = load i32, ptr %13, align 4, !tbaa !21
  %52 = icmp ne i32 %51, 1048576
  br i1 %52, label %53, label %54

53:                                               ; preds = %50
  store i32 1, ptr %4, align 4
  store i32 1, ptr %12, align 4
  br label %55

54:                                               ; preds = %50
  store i32 0, ptr %12, align 4
  br label %55

55:                                               ; preds = %54, %53, %49
  call void @llvm.lifetime.end.p0(i64 8, ptr %14) #26
  call void @llvm.lifetime.end.p0(i64 4, ptr %13) #26
  %56 = load i32, ptr %12, align 4
  switch i32 %56, label %70 [
    i32 0, label %57
  ]

57:                                               ; preds = %55
  br label %58

58:                                               ; preds = %57, %34
  br label %59

59:                                               ; preds = %58, %3
  %60 = load ptr, ptr %5, align 8, !tbaa !11
  %61 = load ptr, ptr %7, align 8, !tbaa !14
  %62 = load i64, ptr %9, align 8, !tbaa !7
  %63 = call ptr @RSTRING_PTR(i64 noundef %62)
  %64 = load ptr, ptr %8, align 8, !tbaa !50
  %65 = getelementptr inbounds nuw %struct.brace_args, ptr %64, i32 0, i32 2
  %66 = load i32, ptr %65, align 8, !tbaa !43
  %67 = call i32 @fnmatch(ptr noundef %60, ptr noundef %61, ptr noundef %63, i32 noundef %66)
  %68 = icmp eq i32 %67, 0
  %69 = zext i1 %68 to i32
  store i32 %69, ptr %4, align 4
  store i32 1, ptr %12, align 4
  br label %70

70:                                               ; preds = %59, %55, %33, %29
  call void @llvm.lifetime.end.p0(i64 8, ptr %11) #26
  call void @llvm.lifetime.end.p0(i64 8, ptr %10) #26
  call void @llvm.lifetime.end.p0(i64 8, ptr %9) #26
  call void @llvm.lifetime.end.p0(i64 8, ptr %8) #26
  %71 = load i32, ptr %4, align 4
  ret i32 %71
}